; Function Attrs: mustprogress nounwind uwtable
define dso_local noundef zeroext i1 @_ZNK4node4quic6Stream11is_writableEv(ptr nocapture noundef nonnull readonly align 8 dereferenceable(256) %this) local_unnamed_addr #3 align 2 {
entry:
  %direction_.i = getelementptr inbounds i8, ptr %this, i64 172
  %0 = load i32, ptr %direction_.i, align 4
  %cmp = icmp eq i32 %0, 1
  br i1 %cmp, label %if.then, label %if.end12

if.then:                                          ; preds = %entry
  %origin_.i = getelementptr inbounds i8, ptr %this, i64 168
  %1 = load i32, ptr %origin_.i, align 8
  switch i32 %1, label %if.end12 [
    i32 0, label %sw.bb
    i32 1, label %sw.bb6
  ]

sw.bb:                                            ; preds = %if.then
  %session_ = getelementptr inbounds i8, ptr %this, i64 160
  %2 = load ptr, ptr %session_, align 8, !nonnull !37, !noundef !37
  %self.i.i.i = getelementptr inbounds i8, ptr %2, i64 16
  %3 = load ptr, ptr %self.i.i.i, align 8
  %call4 = tail call noundef zeroext i1 @_ZNK4node4quic7Session9is_serverEv(ptr noundef nonnull align 8 dereferenceable(2616) %3) #26
  br i1 %call4, label %return, label %if.end12

sw.bb6:                                           ; preds = %if.then
  %session_7 = getelementptr inbounds i8, ptr %this, i64 160
  %4 = load ptr, ptr %session_7, align 8, !nonnull !37, !noundef !37
  %self.i.i.i3 = getelementptr inbounds i8, ptr %4, i64 16
  %5 = load ptr, ptr %self.i.i.i3, align 8
  %call9 = tail call noundef zeroext i1 @_ZNK4node4quic7Session9is_serverEv(ptr noundef nonnull align 8 dereferenceable(2616) %5) #26
  br i1 %call9, label %if.end12, label %return

if.end12:                                         ; preds = %if.then, %sw.bb, %sw.bb6, %entry
  %ptr_.i = getelementptr inbounds i8, ptr %this, i64 144
  %6 = load ptr, ptr %ptr_.i, align 8
  %write_ended = getelementptr inbounds i8, ptr %6, i64 11
  %7 = load i8, ptr %write_ended, align 1
  %cmp14 = icmp eq i8 %7, 0
  br label %return

return:                                           ; preds = %sw.bb6, %sw.bb, %if.end12
  %retval.0 = phi i1 [ %cmp14, %if.end12 ], [ false, %sw.bb ], [ false, %sw.bb6 ]
  ret i1 %retval.0
}